ccopy_reg
_reconstructor
p0
(c__main__
OrchestraConfig
p1
c__builtin__
object
p2
Ntp3
Rp4
(dp5
S'storage_mount_max_retry'
p6
I5
sS'storage_options'
p7
S''
p8
sS'verbose'
p9
NsS'hosts_file'
p10
S'/etc/hosts'
p11
sS'mongo_admin_connection'
p12
g8
sS'mongo_config_file'
p13
S'/etc/mongodb.conf'
p14
sS'email_password'
p15
g8
sS'email_server'
p16
g8
sS'email_address'
p17
g8
sS'storage_path'
p18
S'/mnt/storage'
p19
sS'root_secret'
p20
g8
sS'storage_mountpoint'
p21
g8
sS'api_url'
p22
g8
sS'email_tls'
p23
I00
sS'charms_config'
p24
S'config.yaml'
p25
sS'celery_template_file'
p26
S'templates/celeryconfig.py.template'
p27
sS'juju_config_file'
p28
S'/home/famille/.juju/environments.yaml'
p29
sS'ssh_template_path'
p30
S'ssh'
p31
sS'storage_address'
p32
g8
sS'juju_template_file'
p33
S'environments.yaml'
p34
sS'mongo_nodes_connection'
p35
g8
sS'charms_release'
p36
S'raring'
p37
sS'rabbit_connection'
p38
g8
sS'storage_mount_sleep_delay'
p39
I5
sS'email_username'
p40
g8
sS'charms_repository'
p41
S'charms'
p42
sS'storage_fstype'
p43
g8
sS'nodes_secret'
p44
g8
sS'celery_config_file'
p45
S'celeryconfig.py'
p46
sS'ssh_config_path'
p47
S'/home/famille/.ssh'
p48
sb.