ccopy_reg
_reconstructor
p0
(c__main__
OrchestraConfig
p1
c__builtin__
object
p2
Ntp3
Rp4
(dp5
S'root_secret'
p6
S''
p7
sS'storage_mount_max_retry'
p8
I5
sS'storage_mountpoint'
p9
g7
sS'verbose'
p10
NsS'ssh_config_template'
p11
S'templates/config.template'
p12
sS'ssh_config_file'
p13
S'/home/david/.ssh/config'
p14
sS'hosts_file'
p15
S'/etc/hosts'
p16
sS'rabbit_connection'
p17
g7
sS'celery_template_file'
p18
S'templates/celeryconfig.py.template'
p19
sS'storage_mount_sleep_delay'
p20
I5
sS'storage_fstype'
p21
g7
sS'mongo_config_file'
p22
S'/etc/mongodb.conf'
p23
sS'storage_options'
p24
g7
sS'nodes_secret'
p25
g7
sS'api_url'
p26
g7
sS'storage_address'
p27
g7
sS'celery_config_file'
p28
S'celeryconfig.py'
p29
sS'mongo_connection'
p30
g7
sS'storage_path'
p31
S'/mnt/storage'
p32
sb.