ccopy_reg
_reconstructor
p0
(c__main__
OrchestraConfig
p1
c__builtin__
object
p2
Ntp3
Rp4
(dp5
S'storage_mount_max_retry'
p6
I5
sS'storage_options'
p7
S''
p8
sS'verbose'
p9
NsS'hosts_file'
p10
S'/etc/hosts'
p11
sS'mongo_admin_connection'
p12
g8
sS'mongo_config_file'
p13
S'/etc/mongodb.conf'
p14
sS'storage_path'
p15
S'/mnt/storage'
p16
sS'root_secret'
p17
g8
sS'storage_mountpoint'
p18
g8
sS'api_url'
p19
g8
sS'charms_config'
p20
S'config.yaml'
p21
sS'celery_template_file'
p22
S'templates/celeryconfig.py.template'
p23
sS'storage_address'
p24
g8
sS'mongo_nodes_connection'
p25
g8
sS'charms_release'
p26
S'raring'
p27
sS'rabbit_connection'
p28
g8
sS'storage_mount_sleep_delay'
p29
I5
sS'charms_repository'
p30
S'charms'
p31
sS'storage_fstype'
p32
g8
sS'ssh_config_template'
p33
S'templates/config.template'
p34
sS'nodes_secret'
p35
g8
sS'celery_config_file'
p36
S'celeryconfig.py'
p37
sS'ssh_config_file'
p38
S'/home/david/.ssh/config'
p39
sS'own_environment'
p40
(S'private'
p41
tp42
sb.