ccopy_reg
_reconstructor
p0
(c__main__
OrchestraLocalConfig
p1
c__builtin__
object
p2
Ntp3
Rp4
(dp5
S'storage_mount_max_retry'
p6
I5
sS'storage_options'
p7
V
p8
sS'node_secret'
p9
g8
sS'verbose'
p10
NsS'mongo_node_connection'
p11
g8
sS'hosts_file'
p12
V/etc/hosts
p13
sS'juju_template_path'
p14
Vjuju/
p15
sS'mongo_admin_connection'
p16
g8
sS'mongo_config_file'
p17
V/etc/mongodb.conf
p18
sS'storage_path'
p19
V/mnt/storage
p20
sS'root_secret'
p21
g8
sS'storage_mountpoint'
p22
g8
sS'api_url'
p23
g8
sS'charms_config'
p24
Vconfig.yaml
p25
sS'celery_template_file'
p26
Vtemplates/celeryconfig.py.template
p27
sS'juju_config_file'
p28
V/home/david/.juju/environments.yaml
p29
sS'ssh_template_path'
p30
Vssh
p31
sS'storage_address'
p32
g8
sS'charms_release'
p33
Vraring
p34
sS'rabbit_connection'
p35
g8
sS'storage_mount_sleep_delay'
p36
I5
sS'charms_repository'
p37
Vcharms
p38
sS'storage_fstype'
p39
g8
sS'celery_config_file'
p40
Vceleryconfig.py
p41
sS'ssh_config_path'
p42
V/home/david/.ssh
p43
sb.