ccopy_reg
_reconstructor
p0
(c__main__
OrchestraConfig
p1
c__builtin__
object
p2
Ntp3
Rp4
(dp5
S'root_secret'
p6
S''
p7
sS'storage_mount_max_retry'
p8
I5
sS'storage_mountpoint'
p9
g7
sS'storage_path'
p10
S'/mnt/storage'
p11
sS'verbose'
p12
I01
sS'hosts_file'
p13
S'/etc/hosts'
p14
sS'rabbit_connection'
p15
g7
sS'celery_template_file'
p16
S'templates/celeryconfig.py.template'
p17
sS'storage_mount_sleep_delay'
p18
I5
sS'storage_fstype'
p19
g7
sS'storage_options'
p20
g7
sS'nodes_secret'
p21
g7
sS'mongo_config_file'
p22
S'/etc/mongodb.conf'
p23
sS'storage_address'
p24
g7
sS'celery_config_file'
p25
S'celeryconfig.py'
p26
sS'mongo_connection'
p27
g7
sS'api_url'
p28
g7
sb.