ccopy_reg
_reconstructor
p0
(c__main__
OrchestraConfig
p1
c__builtin__
object
p2
Ntp3
Rp4
(dp5
S'root_secret'
p6
S''
p7
sS'storage_mount_max_retry'
p8
I5
sS'storage_mountpoint'
p9
g7
sS'charms_release'
p10
S'raring'
p11
sS'verbose'
p12
NsS'charms_config'
p13
S'config.yaml'
p14
sS'hosts_file'
p15
S'/etc/hosts'
p16
sS'rabbit_connection'
p17
g7
sS'celery_template_file'
p18
S'templates/celeryconfig.py.template'
p19
sS'storage_mount_sleep_delay'
p20
I5
sS'charms_repository'
p21
S'charms'
p22
sS'storage_fstype'
p23
g7
sS'mongo_config_file'
p24
S'/etc/mongodb.conf'
p25
sS'storage_options'
p26
g7
sS'nodes_secret'
p27
g7
sS'own_environment'
p28
(S'private'
p29
tp30
sS'api_url'
p31
g7
sS'storage_address'
p32
g7
sS'celery_config_file'
p33
S'celeryconfig.py'
p34
sS'mongo_connection'
p35
g7
sS'storage_path'
p36
S'/mnt/storage'
p37
sb.