ccopy_reg
_reconstructor
p0
(c__main__
OrchestraConfig
p1
c__builtin__
object
p2
Ntp3
Rp4
(dp5
S'storage_mount_max_retry'
p6
I5
sS'storage_options'
p7
V
p8
sS'verbose'
p9
NsS'email_ptask_template'
p10
Vtemplates/ptask_mail.template
p11
sS'hosts_file'
p12
V/etc/hosts
p13
sS'mongo_admin_connection'
p14
g8
sS'mongo_config_file'
p15
V/etc/mongodb.conf
p16
sS'email_password'
p17
g8
sS'email_server'
p18
g8
sS'email_address'
p19
g8
sS'storage_path'
p20
V/mnt/storage
p21
sS'root_secret'
p22
g8
sS'storage_mountpoint'
p23
g8
sS'api_url'
p24
g8
sS'email_tls'
p25
I00
sS'charms_config'
p26
Vconfig.yaml
p27
sS'celery_template_file'
p28
Vtemplates/celeryconfig.py.template
p29
sS'juju_config_file'
p30
V/home/famille/.juju/environments.yaml
p31
sS'email_ttask_template'
p32
Vtemplates/ttask_mail.template
p33
sS'ssh_template_path'
p34
Vssh
p35
sS'storage_address'
p36
g8
sS'juju_template_file'
p37
Venvironments.yaml
p38
sS'mongo_nodes_connection'
p39
g8
sS'charms_release'
p40
Vraring
p41
sS'rabbit_connection'
p42
g8
sS'storage_mount_sleep_delay'
p43
I5
sS'email_username'
p44
g8
sS'charms_repository'
p45
Vcharms
p46
sS'storage_fstype'
p47
g8
sS'nodes_secret'
p48
g8
sS'celery_config_file'
p49
Vceleryconfig.py
p50
sS'ssh_config_path'
p51
V/home/famille/.ssh
p52
sb.