ccopy_reg
_reconstructor
p0
(c__main__
OrchestraConfig
p1
c__builtin__
object
p2
Ntp3
Rp4
(dp5
S'root_secret'
p6
S''
p7
sS'storage_mount_max_retry'
p8
I5
sS'storage_mountpoint'
p9
g7
sS'verbose'
p10
NsS'hosts_file'
p11
S'/etc/hosts'
p12
sS'rabbit_connection'
p13
g7
sS'celery_template_file'
p14
S'templates/celeryconfig.py.template'
p15
sS'storage_mount_sleep_delay'
p16
I5
sS'storage_fstype'
p17
g7
sS'mongo_config_file'
p18
S'/etc/mongodb.conf'
p19
sS'storage_options'
p20
g7
sS'nodes_secret'
p21
g7
sS'api_url'
p22
g7
sS'storage_address'
p23
g7
sS'celery_config_file'
p24
S'celeryconfig.py'
p25
sS'mongo_connection'
p26
g7
sS'storage_path'
p27
S'/mnt/storage'
p28
sb.