ccopy_reg
_reconstructor
p0
(c__main__
OrchestraConfig
p1
c__builtin__
object
p2
Ntp3
Rp4
(dp5
S'root_secret'
p6
S''
p7
sS'storage_mount_max_retry'
p8
I5
sS'storage_mountpoint'
p9
g7
sS'verbose'
p10
NsS'ssh_config_file'
p11
S'/home/david/.ssh/config'
p12
sS'hosts_file'
p13
S'/etc/hosts'
p14
sS'rabbit_connection'
p15
g7
sS'celery_template_file'
p16
S'templates/celeryconfig.py.template'
p17
sS'storage_mount_sleep_delay'
p18
I5
sS'storage_fstype'
p19
g7
sS'mongo_config_file'
p20
S'/etc/mongodb.conf'
p21
sS'storage_options'
p22
g7
sS'nodes_secret'
p23
g7
sS'ssh_template_file'
p24
S'templates/config.template'
p25
sS'api_url'
p26
g7
sS'storage_address'
p27
g7
sS'celery_config_file'
p28
S'celeryconfig.py'
p29
sS'mongo_connection'
p30
g7
sS'storage_path'
p31
S'/mnt/storage'
p32
sb.