ccopy_reg
_reconstructor
p0
(c__main__
OrchestraConfig
p1
c__builtin__
object
p2
Ntp3
Rp4
(dp5
S'storage_mount_max_retry'
p6
I5
sS'storage_options'
p7
V
p8
sS'verbose'
p9
NsS'hosts_file'
p10
V/etc/hosts
p11
sS'juju_template_path'
p12
Vjuju/
p13
sS'mongo_admin_connection'
p14
g8
sS'mongo_config_file'
p15
V/etc/mongodb.conf
p16
sS'storage_path'
p17
V/mnt/storage
p18
sS'root_secret'
p19
g8
sS'storage_mountpoint'
p20
g8
sS'api_url'
p21
g8
sS'charms_config'
p22
Vconfig.yaml
p23
sS'celery_template_file'
p24
Vtemplates/celeryconfig.py.template
p25
sS'juju_config_file'
p26
V/home/david/.juju/environments.yaml
p27
sS'ssh_template_path'
p28
Vssh
p29
sS'storage_address'
p30
g8
sS'mongo_nodes_connection'
p31
g8
sS'charms_release'
p32
Vraring
p33
sS'rabbit_connection'
p34
g8
sS'storage_mount_sleep_delay'
p35
I5
sS'charms_repository'
p36
Vcharms
p37
sS'storage_fstype'
p38
g8
sS'nodes_secret'
p39
g8
sS'celery_config_file'
p40
Vceleryconfig.py
p41
sS'ssh_config_path'
p42
V/home/david/.ssh
p43
sb.