ccopy_reg
_reconstructor
p0
(c__main__
OrchestraLocalConfig
p1
c__builtin__
object
p2
Ntp3
Rp4
(dp5
S'storage_mount_max_retry'
p6
I5
sS'storage_options'
p7
V
p8
sS'node_secret'
p9
g8
sS'verbose'
p10
NsS'email_ptask_template'
p11
Vtemplates/ptask_mail.template
p12
sS'mongo_node_connection'
p13
g8
sS'hosts_file'
p14
V/etc/hosts
p15
sS'juju_template_path'
p16
Vjuju/
p17
sS'mongo_admin_connection'
p18
g8
sS'mongo_config_file'
p19
V/etc/mongodb.conf
p20
sS'email_password'
p21
g8
sS'email_server'
p22
g8
sS'email_address'
p23
g8
sS'storage_path'
p24
V/mnt/storage
p25
sS'root_secret'
p26
g8
sS'storage_mountpoint'
p27
g8
sS'api_url'
p28
g8
sS'email_tls'
p29
I00
sS'charms_config'
p30
Vconfig.yaml
p31
sS'celery_template_file'
p32
Vtemplates/celeryconfig.py.template
p33
sS'juju_config_file'
p34
V/home/famille/.juju/environments.yaml
p35
sS'email_ttask_template'
p36
Vtemplates/ttask_mail.template
p37
sS'ssh_template_path'
p38
Vssh
p39
sS'storage_address'
p40
g8
sS'charms_release'
p41
Vraring
p42
sS'rabbit_connection'
p43
g8
sS'storage_mount_sleep_delay'
p44
I5
sS'email_username'
p45
g8
sS'charms_repository'
p46
Vcharms
p47
sS'storage_fstype'
p48
g8
sS'celery_config_file'
p49
Vceleryconfig.py
p50
sS'ssh_config_path'
p51
V/home/famille/.ssh
p52
sb.