ccopy_reg
_reconstructor
p0
(c__main__
OrchestraConfig
p1
c__builtin__
object
p2
Ntp3
Rp4
(dp5
S'storage_mount_max_retry'
p6
I5
sS'storage_options'
p7
S''
p8
sS'verbose'
p9
NsS'hosts_file'
p10
S'/etc/hosts'
p11
sS'mongo_admin_connection'
p12
g8
sS'mongo_config_file'
p13
S'/etc/mongodb.conf'
p14
sS'storage_path'
p15
S'/mnt/storage'
p16
sS'root_secret'
p17
g8
sS'plugit_api_url'
p18
g8
sS'storage_mountpoint'
p19
g8
sS'api_url'
p20
g8
sS'charms_config'
p21
S'config.yaml'
p22
sS'celery_template_file'
p23
S'templates/celeryconfig.py.template'
p24
sS'juju_config_file'
p25
S'/home/famille/.juju/environments.yaml'
p26
sS'ssh_template_path'
p27
S'ssh'
p28
sS'storage_address'
p29
g8
sS'juju_template_file'
p30
S'environments.yaml'
p31
sS'mongo_nodes_connection'
p32
g8
sS'charms_release'
p33
S'raring'
p34
sS'rabbit_connection'
p35
g8
sS'storage_mount_sleep_delay'
p36
I5
sS'charms_repository'
p37
S'charms'
p38
sS'storage_fstype'
p39
g8
sS'nodes_secret'
p40
g8
sS'celery_config_file'
p41
S'celeryconfig.py'
p42
sS'ssh_config_path'
p43
S'/home/famille/.ssh'
p44
sb.