ccopy_reg
_reconstructor
p0
(c__main__
OrchestraLocalConfig
p1
c__builtin__
object
p2
Ntp3
Rp4
(dp5
S'storage_mount_max_retry'
p6
I5
sS'storage_options'
p7
V
p8
sS'node_secret'
p9
g8
sS'verbose'
p10
NsS'email_ptask_template'
p11
Vtemplates/ptask_mail.template
p12
sS'mongo_node_connection'
p13
g8
sS'hosts_file'
p14
V/etc/hosts
p15
sS'juju_template_path'
p16
Vjuju/
p17
sS'mongo_admin_connection'
p18
g8
sS'mongo_config_file'
p19
V/etc/mongodb.conf
p20
sS'email_password'
p21
g8
sS'email_server'
p22
g8
sS'email_address'
p23
g8
sS'storage_path'
p24
V/mnt/storage
p25
sS'root_secret'
p26
g8
sS'plugit_api_url'
p27
S''
p28
sS'storage_mountpoint'
p29
g8
sS'api_url'
p30
g8
sS'email_tls'
p31
I00
sS'charms_config'
p32
Vconfig.yaml
p33
sS'celery_template_file'
p34
Vtemplates/celeryconfig.py.template
p35
sS'juju_config_file'
p36
V/home/famille/.juju/environments.yaml
p37
sS'email_ttask_template'
p38
Vtemplates/ttask_mail.template
p39
sS'ssh_template_path'
p40
Vssh
p41
sS'storage_address'
p42
g8
sS'charms_release'
p43
Vraring
p44
sS'rabbit_connection'
p45
g8
sS'storage_mount_sleep_delay'
p46
I5
sS'email_username'
p47
g8
sS'charms_repository'
p48
Vcharms
p49
sS'storage_fstype'
p50
g8
sS'celery_config_file'
p51
Vceleryconfig.py
p52
sS'ssh_config_path'
p53
V/home/famille/.ssh
p54
sb.