ccopy_reg
_reconstructor
p0
(c__main__
OrchestraConfig
p1
c__builtin__
object
p2
Ntp3
Rp4
(dp5
S'storage_mount_max_retry'
p6
I5
sS'storage_options'
p7
S''
p8
sS'verbose'
p9
NsS'hosts_file'
p10
S'/etc/hosts'
p11
sS'mongo_admin_connection'
p12
g8
sS'mongo_config_file'
p13
S'/etc/mongodb.conf'
p14
sS'storage_path'
p15
S'/mnt/storage'
p16
sS'root_secret'
p17
g8
sS'storage_mountpoint'
p18
g8
sS'api_url'
p19
g8
sS'charms_config'
p20
S'config.yaml'
p21
sS'celery_template_file'
p22
S'templates/celeryconfig.py.template'
p23
sS'juju_config_file'
p24
S'/home/david/.juju/environments.yaml'
p25
sS'ssh_template_path'
p26
S'ssh'
p27
sS'storage_address'
p28
g8
sS'juju_template_file'
p29
S'environments.yaml'
p30
sS'mongo_nodes_connection'
p31
g8
sS'charms_release'
p32
S'raring'
p33
sS'rabbit_connection'
p34
g8
sS'storage_mount_sleep_delay'
p35
I5
sS'charms_repository'
p36
S'charms'
p37
sS'storage_fstype'
p38
g8
sS'nodes_secret'
p39
g8
sS'celery_config_file'
p40
S'celeryconfig.py'
p41
sS'ssh_config_path'
p42
S'/home/david/.ssh'
p43
sb.