ccopy_reg
_reconstructor
p0
(c__main__
StorageConfig
p1
c__builtin__
object
p2
Ntp3
Rp4
(dp5
S'volume_flag'
p6
I00
sS'volume_infos_regex'
p7
cre
_compile
p8
(S'.*Volume Name:\\s*(?P<name>\\S+)\\s+.*Type:\\s*(?P<type>\\S+)\\s+.*Status:\\s*(?P<status>\\S+)\\s+.*Transport-type:\\s*(?P<transport>\\S+).*'
p9
I16
tp10
Rp11
sS'allowed_ips'
p12
(lp13
sS'verbose'
p14
I01
sb.