ccopy_reg
_reconstructor
p0
(c__main__
WebuiConfig
p1
c__builtin__
object
p2
Ntp3
Rp4
(dp5
S'storage_mount_max_retry'
p6
I5
sS'storage_options'
p7
S''
p8
sS'verbose'
p9
NsS'database_template_file'
p10
S'templates/database.php.template'
p11
sS'hosts_file'
p12
S'/etc/hosts'
p13
sS'sites_enabled_path'
p14
S'/etc/apache2/sites-enabled'
p15
sS'storage_path'
p16
S'/mnt/storage'
p17
sS'storage_mountpoint'
p18
g8
sS'api_url'
p19
g8
sS'site_database_file'
p20
S'webui-db.sql'
p21
sS'general_config_file'
p22
S'/var/www/application/config/config.php'
p23
sS'database_config_file'
p24
S'/var/www/application/config/database.php'
p25
sS'proxy_ips'
p26
(lp27
sS'htaccess_template_file'
p28
S'templates/htaccess.template'
p29
sS'storage_address'
p30
g8
sS'www_medias_path'
p31
S'/var/www/medias'
p32
sS'www_uploads_path'
p33
S'/var/www/uploads'
p34
sS'site_template_file'
p35
S'templates/000-default'
p36
sS'storage_mount_sleep_delay'
p37
I5
sS'encryption_key'
p38
g8
sS'storage_fstype'
p39
g8
sS'www_root_path'
p40
S'/var/www'
p41
sS'general_template_file'
p42
S'templates/config.php.template'
p43
sS'htaccess_config_file'
p44
S'/var/www/.htaccess'
p45
sb.