ccopy_reg
_reconstructor
p0
(c__main__
WebuiConfig
p1
c__builtin__
object
p2
Ntp3
Rp4
(dp5
S'storage_mount_max_retry'
p6
I5
sS'storage_options'
p7
S''
p8
sS'database_template_file'
p9
S'templates/database.php.template'
p10
sS'hosts_file'
p11
S'/etc/hosts'
p12
sS'sites_enabled_path'
p13
S'/etc/apache2/sites-enabled'
p14
sS'mysql_config_file'
p15
S'/etc/mysql/my.cnf'
p16
sS'storage_path'
p17
S'/mnt/storage'
p18
sS'storage_mountpoint'
p19
g8
sS'site_database_file'
p20
S'webui-db.sql'
p21
sS'general_config_file'
p22
S'/var/www/application/config/config.php'
p23
sS'storage_medias_path'
p24
S'/mnt/storage/medias'
p25
sS'database_config_file'
p26
S'/var/www/application/config/database.php'
p27
sS'proxy_ips'
p28
g8
sS'htaccess_template_file'
p29
S'templates/htaccess.template'
p30
sS'storage_address'
p31
g8
sS'www_medias_path'
p32
S'/var/www/medias'
p33
sS'www_uploads_path'
p34
S'/var/www/uploads'
p35
sS'site_template_file'
p36
S'templates/000-default'
p37
sS'storage_mount_sleep_delay'
p38
I5
sS'storage_fstype'
p39
g8
sS'www_root_path'
p40
S'/var/www'
p41
sS'general_template_file'
p42
S'templates/config.php.template'
p43
sS'mysql_temp_path'
p44
S'/var/lib/mysql/tmp'
p45
sS'htaccess_config_file'
p46
S'/var/www/.htaccess'
p47
sS'storage_uploads_path'
p48
S'/mnt/storage/uploads'
p49
sS'api_nat_socket'
p50
g8
sb.