ccopy_reg
_reconstructor
p0
(c__main__
PublisherLocalConfig
p1
c__builtin__
object
p2
Ntp3
Rp4
(dp5
S'storage_mount_max_retry'
p6
I5
sS'storage_mountpoint'
p7
V
p8
sS'verbose'
p9
NsS'site_template_file'
p10
Vtemplates/default.template
p11
sS'storage_mount_sleep_delay'
p12
I5
sS'site_file'
p13
V/etc/apache2/sites-available/default
p14
sS'celery_template_file'
p15
Vtemplates/celeryconfig.py.template
p16
sS'apache_config_file'
p17
V/etc/apache2/apache2.conf
p18
sS'proxy_ips'
p19
(lp20
sS'storage_fstype'
p21
g8
sS'hosts_file'
p22
V/etc/hosts
p23
sS'storage_options'
p24
g8
sS'site_ssl_template_file'
p25
Vtemplates/default-ssl.template
p26
sS'site_ssl_file'
p27
V/etc/apache2/sites-available/default-ssl
p28
sS'publish_uri'
p29
g8
sS'storage_address'
p30
g8
sS'celery_config_file'
p31
Vceleryconfig.py
p32
sS'www_root_path'
p33
V/mnt
p34
sS'api_nat_socket'
p35
g8
sS'storage_path'
p36
V/mnt/storage
p37
sb.