ccopy_reg
_reconstructor
p0
(c__main__
PublisherLocalConfig
p1
c__builtin__
object
p2
Ntp3
Rp4
(dp5
S'storage_mount_max_retry'
p6
I5
sS'storage_mountpoint'
p7
V
p8
sS'verbose'
p9
NsS'storage_mount_sleep_delay'
p10
I5
sS'celery_template_file'
p11
Vtemplates/celeryconfig.py.template
p12
sS'apache_config_file'
p13
V/etc/apache2/apache2.conf
p14
sS'proxy_ips'
p15
(lp16
sS'storage_fstype'
p17
g8
sS'hosts_file'
p18
V/etc/hosts
p19
sS'storage_options'
p20
g8
sS'publish_uri'
p21
g8
sS'storage_address'
p22
g8
sS'celery_config_file'
p23
Vceleryconfig.py
p24
sS'www_root_path'
p25
V/mnt
p26
sS'api_nat_socket'
p27
g8
sS'storage_path'
p28
V/mnt/storage
p29
sb.