ccopy_reg
_reconstructor
p0
(c__main__
PublisherConfig
p1
c__builtin__
object
p2
Ntp3
Rp4
(dp5
S'storage_mount_max_retry'
p6
I5
sS'storage_mountpoint'
p7
S''
p8
sS'hosts_file'
p9
S'/etc/hosts'
p10
sS'celery_template_file'
p11
S'templates/celeryconfig.py.template'
p12
sS'storage_mount_sleep_delay'
p13
I5
sS'storage_fstype'
p14
g8
sS'apache_config_file'
p15
S'/etc/apache2/apache2.conf'
p16
sS'storage_options'
p17
g8
sS'storage_address'
p18
g8
sS'celery_config_file'
p19
S'lib/celeryconfig.py'
p20
sS'api_nat_socket'
p21
g8
sS'storage_path'
p22
S'/mnt/storage'
p23
sb.