ccopy_reg
_reconstructor
p0
(c__main__
PublisherConfig
p1
c__builtin__
object
p2
Ntp3
Rp4
(dp5
S'storage_mount_max_retry'
p6
I5
sS'storage_mountpoint'
p7
S''
p8
sS'publish_path'
p9
S'/var/www'
p10
sS'hosts_file'
p11
S'/etc/hosts'
p12
sS'celery_template_file'
p13
S'templates/celeryconfig.py.template'
p14
sS'storage_mount_sleep_delay'
p15
I5
sS'proxy_ips'
p16
(lp17
sS'storage_fstype'
p18
g8
sS'apache_config_file'
p19
S'/etc/apache2/apache2.conf'
p20
sS'storage_options'
p21
g8
sS'publish_uri'
p22
g8
sS'storage_address'
p23
g8
sS'celery_config_file'
p24
S'celeryconfig.py'
p25
sS'api_nat_socket'
p26
g8
sS'storage_path'
p27
S'/mnt/storage'
p28
sb.