ccopy_reg
_reconstructor
p0
(c__main__
PublisherConfig
p1
c__builtin__
object
p2
Ntp3
Rp4
(dp5
S'storage_mount_max_retry'
p6
I5
sS'storage_mountpoint'
p7
V
p8
sS'verbose'
p9
NsS'hosts_file'
p10
V/etc/hosts
p11
sS'celery_template_file'
p12
Vtemplates/celeryconfig.py.template
p13
sS'storage_mount_sleep_delay'
p14
I5
sS'proxy_ips'
p15
(lp16
sS'publish_path'
p17
V/var/www
p18
sS'storage_fstype'
p19
g8
sS'apache_config_file'
p20
V/etc/apache2/apache2.conf
p21
sS'storage_options'
p22
g8
sS'publish_uri'
p23
g8
sS'storage_address'
p24
g8
sS'celery_config_file'
p25
Vceleryconfig.py
p26
sS'api_nat_socket'
p27
g8
sS'storage_path'
p28
V/mnt/storage
p29
sb.