ccopy_reg
_reconstructor
p0
(c__main__
TransformConfig
p1
c__builtin__
object
p2
Ntp3
Rp4
(dp5
S'storage_mountpoint'
p6
S''
p7
sS'celery_template_file'
p8
S'templates/celeryconfig.py.template'
p9
sS'hosts_file'
p10
S'/etc/hosts'
p11
sS'storage_fstype'
p12
g7
sS'storage_options'
p13
g7
sS'storage_address'
p14
g7
sS'celery_config_file'
p15
S'celeryconfig.py'
p16
sS'api_nat_socket'
p17
g7
sS'storage_path'
p18
S'/mnt/storage'
p19
sb.