ccopy_reg
_reconstructor
p0
(c__main__
TransformConfig
p1
c__builtin__
object
p2
Ntp3
Rp4
(dp5
S'storage_mount_max_retry'
p6
I5
sS'storage_mountpoint'
p7
S''
p8
sS'verbose'
p9
NsS'hosts_file'
p10
S'/etc/hosts'
p11
sS'celery_template_file'
p12
S'templates/celeryconfig.py.template'
p13
sS'storage_mount_sleep_delay'
p14
I5
sS'storage_fstype'
p15
g8
sS'storage_options'
p16
g8
sS'storage_address'
p17
g8
sS'celery_config_file'
p18
S'celeryconfig.py'
p19
sS'api_nat_socket'
p20
g8
sS'storage_path'
p21
S'/mnt/storage'
p22
sb.