ccopy_reg
_reconstructor
p0
(c__main__
TransformConfig
p1
c__builtin__
object
p2
Ntp3
Rp4
(dp5
S'storage_mount_max_retry'
p6
I5
sS'storage_mountpoint'
p7
S''
p8
sS'hosts_file'
p9
S'/etc/hosts'
p10
sS'celery_template_file'
p11
S'templates/celeryconfig.py.template'
p12
sS'storage_mount_sleep_delay'
p13
I5
sS'storage_fstype'
p14
g8
sS'storage_options'
p15
g8
sS'storage_address'
p16
g8
sS'celery_config_file'
p17
S'oscied_lib/celeryconfig.py'
p18
sS'api_nat_socket'
p19
g8
sS'storage_path'
p20
S'/mnt/storage'
p21
sb.