ccopy_reg
_reconstructor
p0
(c__main__
TransformLocalConfig
p1
c__builtin__
object
p2
Ntp3
Rp4
(dp5
S'storage_mount_max_retry'
p6
I5
sS'storage_mountpoint'
p7
V
p8
sS'verbose'
p9
NsS'storage_mount_sleep_delay'
p10
I5
sS'celery_template_file'
p11
Vtemplates/celeryconfig.py.template
p12
sS'storage_fstype'
p13
g8
sS'hosts_file'
p14
V/etc/hosts
p15
sS'storage_options'
p16
g8
sS'storage_address'
p17
g8
sS'celery_config_file'
p18
Vceleryconfig.py
p19
sS'api_nat_socket'
p20
g8
sS'storage_path'
p21
V/mnt/storage
p22
sb.